; Function Attrs: nounwind uwtable
define ptr @l_Array_foldrMUnsafe_fold___at_Lake_RBArray_foldr___spec__1___rarg(ptr noundef %0, ptr noundef readonly captures(none) %1, i64 noundef %2, i64 noundef %3, ptr noundef %4) local_unnamed_addr #0 {
  %.not32 = icmp eq i64 %2, %3
  br i1 %.not32, label %._crit_edge, label %.lr.ph

.lr.ph:                                           ; preds = %5
  %6 = getelementptr inbounds nuw i8, ptr %1, i64 24
  %7 = ptrtoint ptr %0 to i64
  %8 = and i64 %7, 1
  %.not31 = icmp eq i64 %8, 0
  br i1 %.not31, label %.lr.ph.split.us, label %.lr.ph.split

.lr.ph.split.us:                                  ; preds = %.lr.ph, %lean_dec.exit.us
  %.01734.us = phi i64 [ %9, %lean_dec.exit.us ], [ %2, %.lr.ph ]
  %.01933.us = phi ptr [ %25, %lean_dec.exit.us ], [ %4, %.lr.ph ]
  %9 = add i64 %.01734.us, -1
  %10 = getelementptr inbounds nuw [0 x ptr], ptr %6, i64 0, i64 %9
  %11 = load ptr, ptr %10, align 8, !tbaa !4
  %12 = ptrtoint ptr %11 to i64
  %13 = and i64 %12, 1
  %.not.i21.us = icmp eq i64 %13, 0
  br i1 %.not.i21.us, label %14, label %lean_array_uget.exit.us

14:                                               ; preds = %.lr.ph.split.us
  %.val.i.i.us = load i32, ptr %11, align 4, !tbaa !8
  %15 = icmp sgt i32 %.val.i.i.us, 0
  br i1 %15, label %18, label %16, !prof !13

16:                                               ; preds = %14
  %.not.i.i.us = icmp eq i32 %.val.i.i.us, 0
  br i1 %.not.i.i.us, label %lean_array_uget.exit.us, label %17

17:                                               ; preds = %16
  tail call void @lean_inc_ref_cold(ptr noundef nonnull %11) #4
  br label %lean_array_uget.exit.us

18:                                               ; preds = %14
  %19 = add nuw i32 %.val.i.i.us, 1
  store i32 %19, ptr %11, align 4, !tbaa !8
  br label %lean_array_uget.exit.us

lean_array_uget.exit.us:                          ; preds = %18, %17, %16, %.lr.ph.split.us
  %.val.i.us = load i32, ptr %0, align 4, !tbaa !8
  %20 = icmp sgt i32 %.val.i.us, 0
  br i1 %20, label %23, label %21, !prof !13

21:                                               ; preds = %lean_array_uget.exit.us
  %.not.i22.us = icmp eq i32 %.val.i.us, 0
  br i1 %.not.i22.us, label %lean_dec.exit.us, label %22

22:                                               ; preds = %21
  tail call void @lean_inc_ref_cold(ptr noundef nonnull %0) #4
  br label %lean_dec.exit.us

23:                                               ; preds = %lean_array_uget.exit.us
  %24 = add nuw i32 %.val.i.us, 1
  store i32 %24, ptr %0, align 4, !tbaa !8
  br label %lean_dec.exit.us

lean_dec.exit.us:                                 ; preds = %23, %22, %21
  %25 = tail call ptr @lean_apply_2(ptr noundef nonnull %0, ptr noundef %11, ptr noundef %.01933.us) #4
  %.not.us = icmp eq i64 %9, %3
  br i1 %.not.us, label %._crit_edge.thread, label %.lr.ph.split.us

.lr.ph.split:                                     ; preds = %.lr.ph, %lean_array_uget.exit
  %.01734 = phi i64 [ %26, %lean_array_uget.exit ], [ %2, %.lr.ph ]
  %.01933 = phi ptr [ %37, %lean_array_uget.exit ], [ %4, %.lr.ph ]
  %26 = add i64 %.01734, -1
  %27 = getelementptr inbounds nuw [0 x ptr], ptr %6, i64 0, i64 %26
  %28 = load ptr, ptr %27, align 8, !tbaa !4
  %29 = ptrtoint ptr %28 to i64
  %30 = and i64 %29, 1
  %.not.i21 = icmp eq i64 %30, 0
  br i1 %.not.i21, label %31, label %lean_array_uget.exit

31:                                               ; preds = %.lr.ph.split
  %.val.i.i = load i32, ptr %28, align 4, !tbaa !8
  %32 = icmp sgt i32 %.val.i.i, 0
  br i1 %32, label %33, label %35, !prof !13

33:                                               ; preds = %31
  %34 = add nuw i32 %.val.i.i, 1
  store i32 %34, ptr %28, align 4, !tbaa !8
  br label %lean_array_uget.exit

35:                                               ; preds = %31
  %.not.i.i = icmp eq i32 %.val.i.i, 0
  br i1 %.not.i.i, label %lean_array_uget.exit, label %36

36:                                               ; preds = %35
  tail call void @lean_inc_ref_cold(ptr noundef nonnull %28) #4
  br label %lean_array_uget.exit

lean_array_uget.exit:                             ; preds = %.lr.ph.split, %33, %35, %36
  %37 = tail call ptr @lean_apply_2(ptr noundef %0, ptr noundef %28, ptr noundef %.01933) #4
  %.not = icmp eq i64 %26, %3
  br i1 %.not, label %._crit_edge.thread43, label %.lr.ph.split

._crit_edge:                                      ; preds = %5
  %.pre = ptrtoint ptr %0 to i64
  %.pre37 = and i64 %.pre, 1
  %38 = icmp eq i64 %.pre37, 0
  br i1 %38, label %._crit_edge.thread, label %._crit_edge.thread43

._crit_edge.thread:                               ; preds = %lean_dec.exit.us, %._crit_edge
  %.019.lcssa42 = phi ptr [ %4, %._crit_edge ], [ %25, %lean_dec.exit.us ]
  %39 = load i32, ptr %0, align 4, !tbaa !8
  %40 = icmp sgt i32 %39, 1
  br i1 %40, label %41, label %43, !prof !13

41:                                               ; preds = %._crit_edge.thread
  %42 = add nsw i32 %39, -1
  store i32 %42, ptr %0, align 4, !tbaa !8
  br label %._crit_edge.thread43

43:                                               ; preds = %._crit_edge.thread
  %.not.i = icmp eq i32 %39, 0
  br i1 %.not.i, label %._crit_edge.thread43, label %44

44:                                               ; preds = %43
  tail call void @lean_dec_ref_cold(ptr noundef nonnull %0) #4
  br label %._crit_edge.thread43

._crit_edge.thread43:                             ; preds = %lean_array_uget.exit, %44, %43, %41, %._crit_edge
  %.019.lcssa41 = phi ptr [ %.019.lcssa42, %44 ], [ %.019.lcssa42, %43 ], [ %.019.lcssa42, %41 ], [ %4, %._crit_edge ], [ %37, %lean_array_uget.exit ]
  ret ptr %.019.lcssa41
}